target datalayout = "e-m:e-p270:32:32-p271:32:32-p272:64:64-i64:64-i128:128-f80:128-n8:16:32:64-S128"
target triple = "x86_64-pc-linux-gnu"

; Function Attrs: nounwind uwtable
define i32 @avpriv_set_systematic_pal2(ptr noundef %0, i32 noundef %1) #0 {
  %3 = alloca i32, align 4
  %4 = alloca ptr, align 8
  %5 = alloca i32, align 4
  %6 = alloca i32, align 4
  %7 = alloca i32, align 4
  %8 = alloca i32, align 4
  %9 = alloca i32, align 4
  %10 = alloca i32, align 4
  store ptr %0, ptr %4, align 8, !tbaa !4
  store i32 %1, ptr %5, align 4, !tbaa !11
  call void @llvm.lifetime.start.p0(i64 4, ptr %6) #9
  store i32 0, ptr %6, align 4, !tbaa !11
  br label %11

11:                                               ; preds = %79, %2
  %12 = load i32, ptr %6, align 4, !tbaa !11
  %13 = icmp slt i32 %12, 256
  br i1 %13, label %14, label %82

14:                                               ; preds = %11
  call void @llvm.lifetime.start.p0(i64 4, ptr %7) #9
  call void @llvm.lifetime.start.p0(i64 4, ptr %8) #9
  call void @llvm.lifetime.start.p0(i64 4, ptr %9) #9
  %15 = load i32, ptr %5, align 4, !tbaa !11
  switch i32 %15, label %62 [
    i32 20, label %16
    i32 17, label %27
    i32 22, label %38
    i32 19, label %49
    i32 8, label %60
  ]

16:                                               ; preds = %14
  %17 = load i32, ptr %6, align 4, !tbaa !11
  %18 = ashr i32 %17, 5
  %19 = mul nsw i32 %18, 36
  store i32 %19, ptr %7, align 4, !tbaa !11
  %20 = load i32, ptr %6, align 4, !tbaa !11
  %21 = ashr i32 %20, 2
  %22 = and i32 %21, 7
  %23 = mul nsw i32 %22, 36
  store i32 %23, ptr %8, align 4, !tbaa !11
  %24 = load i32, ptr %6, align 4, !tbaa !11
  %25 = and i32 %24, 3
  %26 = mul nsw i32 %25, 85
  store i32 %26, ptr %9, align 4, !tbaa !11
  br label %63

27:                                               ; preds = %14
  %28 = load i32, ptr %6, align 4, !tbaa !11
  %29 = ashr i32 %28, 6
  %30 = mul nsw i32 %29, 85
  store i32 %30, ptr %9, align 4, !tbaa !11
  %31 = load i32, ptr %6, align 4, !tbaa !11
  %32 = ashr i32 %31, 3
  %33 = and i32 %32, 7
  %34 = mul nsw i32 %33, 36
  store i32 %34, ptr %8, align 4, !tbaa !11
  %35 = load i32, ptr %6, align 4, !tbaa !11
  %36 = and i32 %35, 7
  %37 = mul nsw i32 %36, 36
  store i32 %37, ptr %7, align 4, !tbaa !11
  br label %63

38:                                               ; preds = %14
  %39 = load i32, ptr %6, align 4, !tbaa !11
  %40 = ashr i32 %39, 3
  %41 = mul nsw i32 %40, 255
  store i32 %41, ptr %7, align 4, !tbaa !11
  %42 = load i32, ptr %6, align 4, !tbaa !11
  %43 = ashr i32 %42, 1
  %44 = and i32 %43, 3
  %45 = mul nsw i32 %44, 85
  store i32 %45, ptr %8, align 4, !tbaa !11
  %46 = load i32, ptr %6, align 4, !tbaa !11
  %47 = and i32 %46, 1
  %48 = mul nsw i32 %47, 255
  store i32 %48, ptr %9, align 4, !tbaa !11
  br label %63

49:                                               ; preds = %14
  %50 = load i32, ptr %6, align 4, !tbaa !11
  %51 = ashr i32 %50, 3
  %52 = mul nsw i32 %51, 255
  store i32 %52, ptr %9, align 4, !tbaa !11
  %53 = load i32, ptr %6, align 4, !tbaa !11
  %54 = ashr i32 %53, 1
  %55 = and i32 %54, 3
  %56 = mul nsw i32 %55, 85
  store i32 %56, ptr %8, align 4, !tbaa !11
  %57 = load i32, ptr %6, align 4, !tbaa !11
  %58 = and i32 %57, 1
  %59 = mul nsw i32 %58, 255
  store i32 %59, ptr %7, align 4, !tbaa !11
  br label %63

60:                                               ; preds = %14
  %61 = load i32, ptr %6, align 4, !tbaa !11
  store i32 %61, ptr %8, align 4, !tbaa !11
  store i32 %61, ptr %9, align 4, !tbaa !11
  store i32 %61, ptr %7, align 4, !tbaa !11
  br label %63

62:                                               ; preds = %14
  store i32 -22, ptr %3, align 4
  store i32 1, ptr %10, align 4
  br label %76

63:                                               ; preds = %60, %49, %38, %27, %16
  %64 = load i32, ptr %9, align 4, !tbaa !11
  %65 = load i32, ptr %8, align 4, !tbaa !11
  %66 = shl i32 %65, 8
  %67 = add nsw i32 %64, %66
  %68 = load i32, ptr %7, align 4, !tbaa !11
  %69 = shl i32 %68, 16
  %70 = add nsw i32 %67, %69
  %71 = add i32 %70, -16777216
  %72 = load ptr, ptr %4, align 8, !tbaa !4
  %73 = load i32, ptr %6, align 4, !tbaa !11
  %74 = sext i32 %73 to i64
  %75 = getelementptr inbounds i32, ptr %72, i64 %74
  store i32 %71, ptr %75, align 4, !tbaa !11
  store i32 0, ptr %10, align 4
  br label %76

76:                                               ; preds = %63, %62
  call void @llvm.lifetime.end.p0(i64 4, ptr %9) #9
  call void @llvm.lifetime.end.p0(i64 4, ptr %8) #9
  call void @llvm.lifetime.end.p0(i64 4, ptr %7) #9
  %77 = load i32, ptr %10, align 4
  switch i32 %77, label %83 [
    i32 0, label %78
  ]

78:                                               ; preds = %76
  br label %79

79:                                               ; preds = %78
  %80 = load i32, ptr %6, align 4, !tbaa !11
  %81 = add nsw i32 %80, 1
  store i32 %81, ptr %6, align 4, !tbaa !11
  br label %11, !llvm.loop !39

82:                                               ; preds = %11
  store i32 0, ptr %3, align 4
  store i32 1, ptr %10, align 4
  br label %83

83:                                               ; preds = %82, %76
  call void @llvm.lifetime.end.p0(i64 4, ptr %6) #9
  %84 = load i32, ptr %3, align 4
  ret i32 %84
}