; Function Attrs: nofree norecurse nosync nounwind memory(argmem: write) uwtable
define range(i32 -22, 1) i32 @avpriv_set_systematic_pal2(ptr noundef writeonly captures(none) %0, i32 noundef %1) local_unnamed_addr #5 {
  switch i32 %1, label %.split28 [
    i32 20, label %.critedge.us
    i32 17, label %.critedge.us33
    i32 22, label %.critedge.us41
    i32 19, label %.critedge.us49
    i32 8, label %.critedge
  ]

.critedge.us:                                     ; preds = %2, %.critedge.us
  %indvars.iv78 = phi i64 [ %indvars.iv.next79, %.critedge.us ], [ 0, %2 ]
  %3 = trunc nuw nsw i64 %indvars.iv78 to i32
  %4 = lshr i32 %3, 5
  %.reass55 = mul i32 %4, 2359296
  %5 = lshr i32 %3, 2
  %6 = and i32 %5, 7
  %.reass = mul nuw nsw i32 %6, 9216
  %7 = and i32 %3, 3
  %8 = mul nuw nsw i32 %7, 85
  %9 = add i32 %.reass55, -16777216
  %10 = or disjoint i32 %9, %.reass
  %11 = or disjoint i32 %10, %8
  %12 = getelementptr inbounds nuw i32, ptr %0, i64 %indvars.iv78
  store i32 %11, ptr %12, align 4, !tbaa !10
  %indvars.iv.next79 = add nuw nsw i64 %indvars.iv78, 1
  %exitcond81.not = icmp eq i64 %indvars.iv.next79, 256
  br i1 %exitcond81.not, label %.split28, label %.critedge.us, !llvm.loop !28

.critedge.us33:                                   ; preds = %2, %.critedge.us33
  %indvars.iv74 = phi i64 [ %indvars.iv.next75, %.critedge.us33 ], [ 0, %2 ]
  %13 = trunc nuw nsw i64 %indvars.iv74 to i32
  %14 = lshr i32 %13, 6
  %15 = mul nuw nsw i32 %14, 85
  %16 = lshr i32 %13, 3
  %17 = and i32 %16, 7
  %.reass56 = mul nuw nsw i32 %17, 9216
  %18 = and i32 %13, 7
  %.reass57 = mul nuw nsw i32 %18, 2359296
  %19 = or disjoint i32 %.reass57, %.reass56
  %20 = or disjoint i32 %19, -16777216
  %21 = add nsw i32 %20, %15
  %22 = getelementptr inbounds nuw i32, ptr %0, i64 %indvars.iv74
  store i32 %21, ptr %22, align 4, !tbaa !10
  %indvars.iv.next75 = add nuw nsw i64 %indvars.iv74, 1
  %exitcond77.not = icmp eq i64 %indvars.iv.next75, 256
  br i1 %exitcond77.not, label %.split28, label %.critedge.us33, !llvm.loop !28

.critedge.us41:                                   ; preds = %2, %.critedge.us41
  %indvars.iv70 = phi i64 [ %indvars.iv.next71, %.critedge.us41 ], [ 0, %2 ]
  %23 = trunc nuw nsw i64 %indvars.iv70 to i32
  %24 = lshr i32 %23, 3
  %.reass59 = mul i32 %24, 16711680
  %25 = lshr i32 %23, 1
  %26 = and i32 %25, 3
  %.reass58 = mul nuw nsw i32 %26, 21760
  %27 = trunc i64 %indvars.iv70 to i1
  %28 = select i1 %27, i32 255, i32 0
  %29 = add i32 %.reass59, -16777216
  %30 = or disjoint i32 %29, %.reass58
  %31 = or disjoint i32 %30, %28
  %32 = getelementptr inbounds nuw i32, ptr %0, i64 %indvars.iv70
  store i32 %31, ptr %32, align 4, !tbaa !10
  %indvars.iv.next71 = add nuw nsw i64 %indvars.iv70, 1
  %exitcond73.not = icmp eq i64 %indvars.iv.next71, 256
  br i1 %exitcond73.not, label %.split28, label %.critedge.us41, !llvm.loop !28

.critedge.us49:                                   ; preds = %2, %.critedge.us49
  %indvars.iv66 = phi i64 [ %indvars.iv.next67, %.critedge.us49 ], [ 0, %2 ]
  %33 = trunc nuw nsw i64 %indvars.iv66 to i32
  %34 = lshr i32 %33, 3
  %35 = mul nuw nsw i32 %34, 255
  %36 = lshr i32 %33, 1
  %37 = and i32 %36, 3
  %.reass60 = mul nuw nsw i32 %37, 21760
  %38 = trunc i64 %indvars.iv66 to i1
  %39 = select i1 %38, i32 -65536, i32 -16777216
  %40 = or disjoint i32 %39, %.reass60
  %41 = add nsw i32 %40, %35
  %42 = getelementptr inbounds nuw i32, ptr %0, i64 %indvars.iv66
  store i32 %41, ptr %42, align 4, !tbaa !10
  %indvars.iv.next67 = add nuw nsw i64 %indvars.iv66, 1
  %exitcond69.not = icmp eq i64 %indvars.iv.next67, 256
  br i1 %exitcond69.not, label %.split28, label %.critedge.us49, !llvm.loop !28

.critedge:                                        ; preds = %2, %.critedge
  %indvars.iv = phi i64 [ %indvars.iv.next, %.critedge ], [ 0, %2 ]
  %43 = shl nuw nsw i64 %indvars.iv, 8
  %44 = shl nuw nsw i64 %indvars.iv, 16
  %45 = add nuw nsw i64 %44, 4278190080
  %46 = add nuw nsw i64 %45, %43
  %47 = add nuw nsw i64 %46, %indvars.iv
  %48 = getelementptr inbounds nuw i32, ptr %0, i64 %indvars.iv
  %49 = trunc nuw i64 %47 to i32
  store i32 %49, ptr %48, align 4, !tbaa !10
  %indvars.iv.next = add nuw nsw i64 %indvars.iv, 1
  %exitcond.not = icmp eq i64 %indvars.iv.next, 256
  br i1 %exitcond.not, label %.split28, label %.critedge, !llvm.loop !28

.split28:                                         ; preds = %.critedge, %.critedge.us49, %.critedge.us41, %.critedge.us33, %.critedge.us, %2
  %.2.split = phi i32 [ -22, %2 ], [ 0, %.critedge.us ], [ 0, %.critedge.us33 ], [ 0, %.critedge.us41 ], [ 0, %.critedge.us49 ], [ 0, %.critedge ]
  ret i32 %.2.split
}